target datalayout = "e-m:e-p270:32:32-p271:32:32-p272:64:64-i64:64-i128:128-f80:128-n8:16:32:64-S128"
target triple = "x86_64-pc-linux-gnu"

%struct.yyguts_t = type { ptr, ptr, ptr, i64, i64, ptr, i8, i32, i32, ptr, i32, i32, i32, i32, i32, ptr, ptr, ptr, i32, i32, ptr, i32, i32, ptr }
%struct.Node = type { i32 }
%struct.ErrorSaveContext = type { i32, i8, i8, ptr }

@.str.15 = private unnamed_addr constant [28 x i8] c"%s at end of jsonpath input\00", align 1
@.str.16 = private unnamed_addr constant [16 x i8] c"jsonpath_scan.l\00", align 1
@__func__.jsonpath_yyerror = private unnamed_addr constant [17 x i8] c"jsonpath_yyerror\00", align 1
@.str.17 = private unnamed_addr constant [37 x i8] c"%s at or near \22%s\22 of jsonpath input\00", align 1

; Function Attrs: nounwind uwtable
define dso_local void @jsonpath_yyerror(ptr noundef %0, ptr noundef %1, ptr noundef %2, ptr noundef %3) #0 {
  %5 = alloca ptr, align 8
  %6 = alloca ptr, align 8
  %7 = alloca ptr, align 8
  %8 = alloca ptr, align 8
  %9 = alloca ptr, align 8
  %10 = alloca i32, align 4
  %11 = alloca ptr, align 8
  %12 = alloca ptr, align 8
  store ptr %0, ptr %5, align 8
  store ptr %1, ptr %6, align 8
  store ptr %2, ptr %7, align 8
  store ptr %3, ptr %8, align 8
  call void @llvm.lifetime.start.p0(i64 8, ptr %9) #12
  %13 = load ptr, ptr %7, align 8
  store ptr %13, ptr %9, align 8
  %14 = load ptr, ptr %6, align 8
  %15 = icmp ne ptr %14, null
  br i1 %15, label %16, label %27

16:                                               ; preds = %4
  %17 = load ptr, ptr %6, align 8
  %18 = getelementptr inbounds nuw %struct.Node, ptr %17, i32 0, i32 0
  %19 = load i32, ptr %18, align 4
  %20 = icmp eq i32 %19, 446
  br i1 %20, label %21, label %27

21:                                               ; preds = %16
  %22 = load ptr, ptr %6, align 8
  %23 = getelementptr inbounds nuw %struct.ErrorSaveContext, ptr %22, i32 0, i32 1
  %24 = load i8, ptr %23, align 4, !range !6, !noundef !7
  %25 = trunc i8 %24 to i1
  br i1 %25, label %26, label %27

26:                                               ; preds = %21
  store i32 1, ptr %10, align 4
  br label %64

27:                                               ; preds = %21, %16, %4
  %28 = load ptr, ptr %9, align 8
  %29 = getelementptr inbounds nuw %struct.yyguts_t, ptr %28, i32 0, i32 20
  %30 = load ptr, ptr %29, align 8
  %31 = load i8, ptr %30, align 1
  %32 = sext i8 %31 to i32
  %33 = icmp eq i32 %32, 0
  br i1 %33, label %34, label %47

34:                                               ; preds = %27
  br label %35

35:                                               ; preds = %34
  call void @llvm.lifetime.start.p0(i64 8, ptr %11) #12
  %36 = load ptr, ptr %6, align 8
  store ptr %36, ptr %11, align 8
  %37 = load ptr, ptr %11, align 8
  %38 = call zeroext i1 @errsave_start(ptr noundef %37, ptr noundef null)
  br i1 %38, label %39, label %44

39:                                               ; preds = %35
  %40 = call i32 @errcode(i32 noundef 16801924)
  %41 = load ptr, ptr %8, align 8
  %42 = call i32 (ptr, ...) @errmsg(ptr noundef @.str.15, ptr noundef %41)
  %43 = load ptr, ptr %11, align 8
  call void @errsave_finish(ptr noundef %43, ptr noundef @.str.16, i32 noundef 378, ptr noundef @__func__.jsonpath_yyerror)
  br label %44

44:                                               ; preds = %39, %35
  call void @llvm.lifetime.end.p0(i64 8, ptr %11) #12
  br label %45

45:                                               ; preds = %44
  br label %46

46:                                               ; preds = %45
  br label %63

47:                                               ; preds = %27
  br label %48

48:                                               ; preds = %47
  call void @llvm.lifetime.start.p0(i64 8, ptr %12) #12
  %49 = load ptr, ptr %6, align 8
  store ptr %49, ptr %12, align 8
  %50 = load ptr, ptr %12, align 8
  %51 = call zeroext i1 @errsave_start(ptr noundef %50, ptr noundef null)
  br i1 %51, label %52, label %60

52:                                               ; preds = %48
  %53 = call i32 @errcode(i32 noundef 16801924)
  %54 = load ptr, ptr %8, align 8
  %55 = load ptr, ptr %9, align 8
  %56 = getelementptr inbounds nuw %struct.yyguts_t, ptr %55, i32 0, i32 20
  %57 = load ptr, ptr %56, align 8
  %58 = call i32 (ptr, ...) @errmsg(ptr noundef @.str.17, ptr noundef %54, ptr noundef %57)
  %59 = load ptr, ptr %12, align 8
  call void @errsave_finish(ptr noundef %59, ptr noundef @.str.16, i32 noundef 386, ptr noundef @__func__.jsonpath_yyerror)
  br label %60

60:                                               ; preds = %52, %48
  call void @llvm.lifetime.end.p0(i64 8, ptr %12) #12
  br label %61

61:                                               ; preds = %60
  br label %62

62:                                               ; preds = %61
  br label %63

63:                                               ; preds = %62, %46
  store i32 0, ptr %10, align 4
  br label %64

64:                                               ; preds = %63, %26
  call void @llvm.lifetime.end.p0(i64 8, ptr %9) #12
  %65 = load i32, ptr %10, align 4
  switch i32 %65, label %67 [
    i32 0, label %66
    i32 1, label %66
  ]

66:                                               ; preds = %64, %64
  ret void

67:                                               ; preds = %64
  unreachable
}