; Function Attrs: nounwind uwtable
define dso_local void @jsonpath_yyerror(ptr readnone captures(none) %0, ptr noundef %1, ptr noundef readonly captures(none) %2, ptr noundef %3) local_unnamed_addr #0 {
  %.not = icmp eq ptr %1, null
  br i1 %.not, label %12, label %5

5:                                                ; preds = %4
  %6 = load i32, ptr %1, align 4
  %7 = icmp eq i32 %6, 446
  br i1 %7, label %8, label %12

8:                                                ; preds = %5
  %9 = getelementptr inbounds nuw i8, ptr %1, i64 4
  %10 = load i8, ptr %9, align 4, !range !7, !noundef !8
  %11 = trunc nuw i8 %10 to i1
  br i1 %11, label %27, label %12

12:                                               ; preds = %8, %5, %4
  %13 = getelementptr inbounds nuw i8, ptr %2, i64 128
  %14 = load ptr, ptr %13, align 8
  %15 = load i8, ptr %14, align 1
  %16 = icmp eq i8 %15, 0
  %17 = tail call zeroext i1 @errsave_start(ptr noundef %1, ptr noundef null) #17
  br i1 %16, label %18, label %22

18:                                               ; preds = %12
  br i1 %17, label %19, label %27

19:                                               ; preds = %18
  %20 = tail call i32 @errcode(i32 noundef 16801924) #17
  %21 = tail call i32 (ptr, ...) @errmsg(ptr noundef nonnull @.str.15, ptr noundef %3) #17
  br label %.sink.split

22:                                               ; preds = %12
  br i1 %17, label %23, label %27

23:                                               ; preds = %22
  %24 = tail call i32 @errcode(i32 noundef 16801924) #17
  %25 = load ptr, ptr %13, align 8
  %26 = tail call i32 (ptr, ...) @errmsg(ptr noundef nonnull @.str.17, ptr noundef %3, ptr noundef %25) #17
  br label %.sink.split

.sink.split:                                      ; preds = %23, %19
  %.sink = phi i32 [ 378, %19 ], [ 386, %23 ]
  tail call void @errsave_finish(ptr noundef %1, ptr noundef nonnull @.str.16, i32 noundef %.sink, ptr noundef nonnull @__func__.jsonpath_yyerror) #17
  br label %27

27:                                               ; preds = %.sink.split, %18, %22, %8
  ret void
}